; Function Attrs: mustprogress nofree norecurse nosync nounwind willreturn memory(write, argmem: readwrite, inaccessiblemem: none) uwtable
define dso_local void @_ZN4node4quic8Endpoint10MarkAsBusyEb(ptr nocapture noundef nonnull readonly align 8 dereferenceable(1520) %this, i1 noundef zeroext %on) local_unnamed_addr #10 align 2 {
entry:
  %conv = zext i1 %on to i8
  %ptr_.i = getelementptr inbounds i8, ptr %this, i64 128
  %0 = load ptr, ptr %ptr_.i, align 8
  %busy = getelementptr inbounds i8, ptr %0, i64 5
  store i8 %conv, ptr %busy, align 1
  ret void
}